; Function Attrs: mustprogress uwtable
define hidden void @_ZN3sls10arith_baseI8rationalE8from_numEP4sortRKS1_(ptr dead_on_unwind noalias writable writeonly sret(%class.obj_ref) align 8 captures(none) initializes((0, 16)) %0, ptr noundef nonnull align 8 dereferenceable(792) %1, ptr noundef readonly captures(none) %2, ptr noundef nonnull align 8 dereferenceable(32) %3) local_unnamed_addr #3 align 2 {
  %5 = getelementptr inbounds nuw i8, ptr %1, i64 296
  %6 = getelementptr inbounds nuw i8, ptr %2, i64 24
  %7 = load ptr, ptr %6, align 8, !tbaa !17
  %8 = icmp eq ptr %7, null
  br i1 %8, label %_ZNK17arith_recognizers6is_intEPK4sort.exit.i, label %_ZNK4decl13get_family_idEv.exit.thread.i.i.i.i

_ZNK4decl13get_family_idEv.exit.thread.i.i.i.i:   ; preds = %4
  %9 = load i32, ptr %7, align 8, !tbaa !23
  %10 = icmp eq i32 %9, 5
  br i1 %10, label %11, label %_ZNK17arith_recognizers6is_intEPK4sort.exit.i

11:                                               ; preds = %_ZNK4decl13get_family_idEv.exit.thread.i.i.i.i
  %12 = getelementptr inbounds nuw i8, ptr %7, i64 4
  %13 = load i32, ptr %12, align 4, !tbaa !28
  %14 = icmp eq i32 %13, 1
  br label %_ZNK17arith_recognizers6is_intEPK4sort.exit.i

_ZNK17arith_recognizers6is_intEPK4sort.exit.i:    ; preds = %11, %_ZNK4decl13get_family_idEv.exit.thread.i.i.i.i, %4
  %15 = phi i1 [ %14, %11 ], [ false, %_ZNK4decl13get_family_idEv.exit.thread.i.i.i.i ], [ false, %4 ]
  %16 = getelementptr inbounds nuw i8, ptr %1, i64 304
  %17 = load ptr, ptr %16, align 8, !tbaa !29
  %.not.i.i.i = icmp eq ptr %17, null
  br i1 %.not.i.i.i, label %18, label %_ZNK10arith_util10mk_numeralERK8rationalPK4sort.exit

18:                                               ; preds = %_ZNK17arith_recognizers6is_intEPK4sort.exit.i
  tail call void @_ZN10arith_util11init_pluginEv(ptr noundef nonnull align 8 dereferenceable(16) %5)
  %.pre.i.i.i = load ptr, ptr %16, align 8, !tbaa !29
  br label %_ZNK10arith_util10mk_numeralERK8rationalPK4sort.exit

_ZNK10arith_util10mk_numeralERK8rationalPK4sort.exit: ; preds = %_ZNK17arith_recognizers6is_intEPK4sort.exit.i, %18
  %19 = phi ptr [ %.pre.i.i.i, %18 ], [ %17, %_ZNK17arith_recognizers6is_intEPK4sort.exit.i ]
  %20 = tail call noundef ptr @_ZN17arith_decl_plugin10mk_numeralERK8rationalb(ptr noundef nonnull align 8 dereferenceable(441) %19, ptr noundef nonnull align 8 dereferenceable(32) %3, i1 noundef zeroext %15)
  %21 = getelementptr inbounds nuw i8, ptr %1, i64 16
  %22 = load ptr, ptr %21, align 8, !tbaa !33
  store ptr %20, ptr %0, align 8, !tbaa !36
  %23 = getelementptr inbounds nuw i8, ptr %0, i64 8
  store ptr %22, ptr %23, align 8, !tbaa !39
  %.not.i.i = icmp eq ptr %20, null
  br i1 %.not.i.i, label %_ZN7obj_refI4expr11ast_managerEC2EPS0_RS1_.exit, label %_ZN11ast_manager7inc_refEP3ast.exit.i.i

_ZN11ast_manager7inc_refEP3ast.exit.i.i:          ; preds = %_ZNK10arith_util10mk_numeralERK8rationalPK4sort.exit
  %24 = getelementptr inbounds nuw i8, ptr %20, i64 8
  %25 = load i32, ptr %24, align 4, !tbaa !40
  %26 = add i32 %25, 1
  store i32 %26, ptr %24, align 4, !tbaa !40
  br label %_ZN7obj_refI4expr11ast_managerEC2EPS0_RS1_.exit

_ZN7obj_refI4expr11ast_managerEC2EPS0_RS1_.exit:  ; preds = %_ZNK10arith_util10mk_numeralERK8rationalPK4sort.exit, %_ZN11ast_manager7inc_refEP3ast.exit.i.i
  ret void
}